"File: Uart.c        Assembler  Version HGASM0202      Page 1


   1  0000              ; Generated by holtek-gcc v3.19, Fri Jul 31 15:05:28 2020
   2  0000              ; 
   3  0000              ; Configuration:
   4  0000              ;       without long instruction
   5  0000              ;       Single ROM, Multi-RAM
   6  0000              ;       bits_per_rom_unit:16
   7  0000              ;       with mp1
   8  0000              ;       with tbhp, address(0x9)
   9  0000              ;          Use tabrd-const
  10  0000              ;       
  11  0000              ;       
  12  0000              ;       
  13  0000              ; use 'tabrdc' instead of 'tabrd'
  14  0000              ;       
  15  0000              
  16  0000              #pragma translator "holtek-gcc 4.6.4" "3.19" "build 20130711"
  17  0000              ; Rebuild 718
  18  0000              
  19  0000              ir equ [2]
  20  0000              mp equ [3]
  21  0000              sbp equ [1]
  22  0000              acc equ [5]
  23  0000              bp equ [4]
  24  0000              tblp equ [7]
  25  0000              tbhp equ [9]
  26  0000              status equ [10]
  27  0000              c equ [10].0
  28  0000              ac equ [10].1
  29  0000              z equ [10].2
  30  0000              ov equ [10].3
  31  0000              intc equ [11]
  32  0000              
  33  0000              extern ra:byte
  34  0000              extern rb:byte
  35  0000              extern rc:byte
  36  0000              extern rd:byte
  37  0000              extern re:byte
  38  0000              extern rf:byte
  39  0000              extern rg:byte
  40  0000              extern rh:byte
  41  0000              extern _Crom2Prom:near
  42  0000              extern _Crom2PromNext:near
  43  0000              
  44  0000              RAMBANK 0 @HCCINIT, @HCCINIT0
  45  0000              
  46  0000              RAMBANK 0 @BITDATASEC, @BITDATASEC1
  47  0000              @HCCINIT	.section 'data'
  48  0000              @HCCINIT0	.section 'data'
  49  0000              @BITDATASEC	 .section 'data'
  50  0000              @BITDATASEC1	 .section 'data'
  51  0000              
  52  0000              #pragma debug scope 1 1
  53  0000              	extern __DELAY3:near
  54  0000              	extern __DELAYX3:near
  55  0000              	extern __DELAYX6:near
  56  0000              	extern __DELAYY5:near
  57  0000              	extern __DELAYY3:near
  58  0000              	extern _builtin_holtek_delay_2:byte
  59  0000              ___pcc equ [65]
"File: Uart.ASM      Assembler  Version HGASM0202      Page 2

  60  0000              ___pc equ [64]
  61  0000              ___pcpu equ [66]
  62  0000              ___ucr1 equ [69]
  63  0000              ___ucr2 equ [70]
  64  0000              ___brg equ [71]
  65  0000              ___intc2 equ [16]
  66  0000              public _Uart_Init
  67  0000              #pragma debug scope 2 1

  54  0000              #line 54 "C:\ChipsGarden\醇法\MK8000\MK8000-Power PCB\UARTwith8bitsMCU\UARTwith8bitsMCU\Uart.c"
  54  0000              _Uart_Init .section 'code'
  54  0000              _Uart_Init proc
  55  0000              #line 55 "C:\ChipsGarden\醇法\MK8000\MK8000-Power PCB\UARTwith8bitsMCU\UARTwith8bitsMCU\Uart.c"
  55  0000  3541        	clr [65].2
  56  0001              #line 56 "C:\ChipsGarden\醇法\MK8000\MK8000-Power PCB\UARTwith8bitsMCU\UARTwith8bitsMCU\Uart.c"
  56  0001  3540        	clr [64].2
  58  0002              #line 58 "C:\ChipsGarden\醇法\MK8000\MK8000-Power PCB\UARTwith8bitsMCU\UARTwith8bitsMCU\Uart.c"
  58  0002  35C1        	clr [65].3
  59  0003              #line 59 "C:\ChipsGarden\醇法\MK8000\MK8000-Power PCB\UARTwith8bitsMCU\UARTwith8bitsMCU\Uart.c"
  59  0003  3241        	set [65].4
  60  0004              #line 60 "C:\ChipsGarden\醇法\MK8000\MK8000-Power PCB\UARTwith8bitsMCU\UARTwith8bitsMCU\Uart.c"
  60  0004  31C0        	set [64].3
  61  0005              #line 61 "C:\ChipsGarden\醇法\MK8000\MK8000-Power PCB\UARTwith8bitsMCU\UARTwith8bitsMCU\Uart.c"
  61  0005  3240        	set [64].4
  62  0006              #line 62 "C:\ChipsGarden\醇法\MK8000\MK8000-Power PCB\UARTwith8bitsMCU\UARTwith8bitsMCU\Uart.c"
  62  0006  31C2        	set [66].3
  63  0007              #line 63 "C:\ChipsGarden\醇法\MK8000\MK8000-Power PCB\UARTwith8bitsMCU\UARTwith8bitsMCU\Uart.c"
  63  0007  3242        	set [66].4
  65  0008              #line 65 "C:\ChipsGarden\醇法\MK8000\MK8000-Power PCB\UARTwith8bitsMCU\UARTwith8bitsMCU\Uart.c"
  65  0008  0F80        	mov a,128
  65  0009  00C5        	mov [69],a
  66  000A              #line 66 "C:\ChipsGarden\醇法\MK8000\MK8000-Power PCB\UARTwith8bitsMCU\UARTwith8bitsMCU\Uart.c"
  66  000A  0FE5        	mov a,229
  66  000B  00C6        	mov [70],a
  67  000C              #line 67 "C:\ChipsGarden\醇法\MK8000\MK8000-Power PCB\UARTwith8bitsMCU\UARTwith8bitsMCU\Uart.c"
  67  000C  3146        	set [70].2
  69  000D              #line 69 "C:\ChipsGarden\醇法\MK8000\MK8000-Power PCB\UARTwith8bitsMCU\UARTwith8bitsMCU\Uart.c"
  69  000D  0F33        	mov a,51
  69  000E  00C7        	mov [71],a
  73  000F              #line 73 "C:\ChipsGarden\醇法\MK8000\MK8000-Power PCB\UARTwith8bitsMCU\UARTwith8bitsMCU\Uart.c"
  73  000F  1F00     R  	clr _rx_guide[0]
  74  0010              #line 74 "C:\ChipsGarden\醇法\MK8000\MK8000-Power PCB\UARTwith8bitsMCU\UARTwith8bitsMCU\Uart.c"
  74  0010  1F00     R  	clr _tx_guide[0]
  75  0011              #line 75 "C:\ChipsGarden\醇法\MK8000\MK8000-Power PCB\UARTwith8bitsMCU\UARTwith8bitsMCU\Uart.c"
  75  0011  3190        	set [16].3
  75  0012  0003        	ret
  75  0013              _Uart_Init endp
  75  0013              #line 75 "C:\ChipsGarden\醇法\MK8000\MK8000-Power PCB\UARTwith8bitsMCU\UARTwith8bitsMCU\Uart.c"
  75  0013              #pragma debug scope 1 1
  75  0013              public _Uart_off
  75  0013              #pragma debug scope 3 1
  84  0013              #line 84 "C:\ChipsGarden\醇法\MK8000\MK8000-Power PCB\UARTwith8bitsMCU\UARTwith8bitsMCU\Uart.c"
  84  0000              _Uart_off .section 'code'
  84  0000              _Uart_off proc
  85  0000              #line 85 "C:\ChipsGarden\醇法\MK8000\MK8000-Power PCB\UARTwith8bitsMCU\UARTwith8bitsMCU\Uart.c"
  85  0000  3546        	clr [70].2
  90  0001              #line 90 "C:\ChipsGarden\醇法\MK8000\MK8000-Power PCB\UARTwith8bitsMCU\UARTwith8bitsMCU\Uart.c"
  90  0001  31C0        	set [64].3
  91  0002              #line 91 "C:\ChipsGarden\醇法\MK8000\MK8000-Power PCB\UARTwith8bitsMCU\UARTwith8bitsMCU\Uart.c"
  91  0002  3241        	set [65].4
"File: Uart.c        Assembler  Version HGASM0202      Page 3

  91  0003  0003        	ret
  91  0004              _Uart_off endp
  91  0004              #line 91 "C:\ChipsGarden\醇法\MK8000\MK8000-Power PCB\UARTwith8bitsMCU\UARTwith8bitsMCU\Uart.c"
  91  0004              #pragma debug scope 1 1
  91  0004              ___usr equ [68]
  91  0004              ___txr_rxr equ [72]
  91  0004              public _UART_ISR
  91  0004              #pragma debug scope 4 1
 101  0004              #line 101 "C:\ChipsGarden\醇法\MK8000\MK8000-Power PCB\UARTwith8bitsMCU\UARTwith8bitsMCU\Uart.c"
 101  0000              @UART_ISR_code .section at 44 'code'
 101  0000  0080     E  	mov r1,a
 101  0001  070A        	mov a,status
 101  0002  0080     E  	mov r2,a
 101  0003  2800     R  	jmp _UART_ISR
 101  0004              #pragma debug scope 1 1
 101  0004              @dummy44 endp
 101  0004              #pragma debug scope 5 1
 101  0000              _UART_ISR .section 'code'
 101  0000              _UART_ISR proc
 101  0000  0704        	mov a,bp
 101  0001  0080     E  	mov r3,a
 101  0002  0703        	mov a,mp
 101  0003  0080     E  	mov r4,a
 101  0004  0701        	mov a,sbp
 101  0005  0080     E  	mov r5,a
 101  0006  0707        	mov a,tblp
 101  0007  0080     E  	mov r6,a
 101  0008  0709        	mov a,tbhp
 101  0009  0080     E  	mov r7,a
 103  000A              #line 103 "C:\ChipsGarden\醇法\MK8000\MK8000-Power PCB\UARTwith8bitsMCU\UARTwith8bitsMCU\Uart.c"
 103  000A  3FC4        	sz [68].7
 103  000B  2800     R  	jmp _L4
 103  000C              #line 103 "C:\ChipsGarden\醇法\MK8000\MK8000-Power PCB\UARTwith8bitsMCU\UARTwith8bitsMCU\Uart.c"
 103  000C  3F44        	sz [68].6
 103  000D  2800     R  	jmp _L4
 103  000E  3EC4        	sz [68].5
 103  000F  2800     R  	jmp _L4
 103  0010  3A44        	snz [68].4
 103  0011  2800     R  	jmp _L5
 103  0012              _L4:
 105  0012              #line 105 "C:\ChipsGarden\醇法\MK8000\MK8000-Power PCB\UARTwith8bitsMCU\UARTwith8bitsMCU\Uart.c"
 105  0012  0744        	mov a,[68]
 105  0013  0080     E  	mov ra,a
 106  0014              #line 106 "C:\ChipsGarden\醇法\MK8000\MK8000-Power PCB\UARTwith8bitsMCU\UARTwith8bitsMCU\Uart.c"
 106  0014  0748        	mov a,[72]
 106  0015  0080     E  	mov _isr_temp0[0],a
 107  0016              #line 107 "C:\ChipsGarden\醇法\MK8000\MK8000-Power PCB\UARTwith8bitsMCU\UARTwith8bitsMCU\Uart.c"
 107  0016  1F00     R  	clr _rx_guide[0]
 107  0017  2800     R  	jmp _L3
 107  0018              _L5:
 111  0018              #line 111 "C:\ChipsGarden\醇法\MK8000\MK8000-Power PCB\UARTwith8bitsMCU\UARTwith8bitsMCU\Uart.c"
 111  0018  3944        	snz [68].2
 111  0019  2800     R  	jmp _L7
 113  001A              #line 113 "C:\ChipsGarden\醇法\MK8000\MK8000-Power PCB\UARTwith8bitsMCU\UARTwith8bitsMCU\Uart.c"
 113  001A  0F07        	mov a,7
 113  001B  0200     R  	sub a,_rx_guide[0]
 113  001C  3C0A        	sz c
 113  001D  2800     R  	jmp _L8
 115  001E              #line 115 "C:\ChipsGarden\醇法\MK8000\MK8000-Power PCB\UARTwith8bitsMCU\UARTwith8bitsMCU\Uart.c"
 115  001E  0F08        	mov a,8
"File: Uart.c        Assembler  Version HGASM0202      Page 4

 115  001F  0080     R  	mov _rx_guide[0],a
 115  0020  2800     R  	jmp _L9
 115  0021              _L8:
 119  0021              #line 119 "C:\ChipsGarden\醇法\MK8000\MK8000-Power PCB\UARTwith8bitsMCU\UARTwith8bitsMCU\Uart.c"
 119  0021  0F00     R  	mov a,low offset _array_uart_rxbuff
 119  0022  0300     R  	add a,_rx_guide[0]
 119  0023  0083        	mov mp,a
 119  0024  0F00     R  	mov a,high offset _array_uart_rxbuff
 119  0025  1F01        	clr sbp
 119  0026  1381        	adcm a,sbp
 119  0027  0701        	mov a,sbp
 119  0028  0084        	mov bp,a
 119  0029  0748        	mov a,[72]
 119  002A  0082        	mov ir,a
 120  002B              #line 120 "C:\ChipsGarden\醇法\MK8000\MK8000-Power PCB\UARTwith8bitsMCU\UARTwith8bitsMCU\Uart.c"
 120  002B  1480     R  	inc _rx_guide[0]
 121  002C              #line 121 "C:\ChipsGarden\醇法\MK8000\MK8000-Power PCB\UARTwith8bitsMCU\UARTwith8bitsMCU\Uart.c"
 121  002C  0700     R  	mov a,_rx_guide[0]
 121  002D  0A08        	sub a,8
 121  002E  390A        	snz z
 121  002F  2800     R  	jmp _L9
 121  0030  0F00     R  	mov a,low (offset _array_uart_rxbuff-1)
 121  0031  0300     R  	add a,_rx_guide[0]
 121  0032  0083        	mov mp,a
 121  0033  0F00     R  	mov a,high (offset _array_uart_rxbuff-1)
 121  0034  1F01        	clr sbp
 121  0035  1381        	adcm a,sbp
 121  0036  2000     E  	call _Crom2Prom
 121  0037  0080     E  	mov ra,a
 121  0038  0700     E  	mov a,ra
 121  0039  0A0A        	sub a,10
 121  003A  390A        	snz z
 121  003B  2800     R  	jmp _L9
 123  003C              #line 123 "C:\ChipsGarden\醇法\MK8000\MK8000-Power PCB\UARTwith8bitsMCU\UARTwith8bitsMCU\Uart.c"
 123  003C  3000     R  	set _uart_flag[0].0
 123  003D              _L9:
 131  003D              #line 131 "C:\ChipsGarden\醇法\MK8000\MK8000-Power PCB\UARTwith8bitsMCU\UARTwith8bitsMCU\Uart.c"
 131  003D              ;# 131 "C:\ChipsGarden\醇法\MK8000\MK8000-Power PCB\UARTwith8bitsMCU\UARTwith8bitsMCU\Uart.c" 1
 131  003D  0000        	nop
 131  003E  2800     R  	jmp _L3
 131  003F              _L7:
 135  003F              #line 135 "C:\ChipsGarden\醇法\MK8000\MK8000-Power PCB\UARTwith8bitsMCU\UARTwith8bitsMCU\Uart.c"
 135  003F  3844        	snz [68].0
 135  0040  2800     R  	jmp _L3
 137  0041              #line 137 "C:\ChipsGarden\醇法\MK8000\MK8000-Power PCB\UARTwith8bitsMCU\UARTwith8bitsMCU\Uart.c"
 137  0041  1080     R  	sz _tx_guide[0]
 137  0042  2800     R  	jmp _LI1
 137  0043  2800     R  	jmp _L10
 137  0044              _LI1:
 139  0044              #line 139 "C:\ChipsGarden\醇法\MK8000\MK8000-Power PCB\UARTwith8bitsMCU\UARTwith8bitsMCU\Uart.c"
 139  0044  1580     R  	dec _tx_guide[0]
 140  0045              #line 140 "C:\ChipsGarden\醇法\MK8000\MK8000-Power PCB\UARTwith8bitsMCU\UARTwith8bitsMCU\Uart.c"
 140  0045  1400     R  	inca _tx_index[0]
 140  0046  0080     E  	mov ra,a
 140  0047  0700     E  	mov a,ra
 140  0048  0080     R  	mov _tx_index[0],a
 141  0049              #line 141 "C:\ChipsGarden\醇法\MK8000\MK8000-Power PCB\UARTwith8bitsMCU\UARTwith8bitsMCU\Uart.c"
 141  0049  0F00     R  	mov a,low offset _array_uart_txbuff
 141  004A  0300     E  	add a,ra
 141  004B  0083        	mov mp,a
"File: Uart.c        Assembler  Version HGASM0202      Page 5

 141  004C  0F00     R  	mov a,high offset _array_uart_txbuff
 141  004D  1F01        	clr sbp
 141  004E  1381        	adcm a,sbp
 141  004F  2000     E  	call _Crom2Prom
 141  0050  00C8        	mov [72],a
 141  0051  2800     R  	jmp _L3
 141  0052              _L10:
 145  0052              #line 145 "C:\ChipsGarden\醇法\MK8000\MK8000-Power PCB\UARTwith8bitsMCU\UARTwith8bitsMCU\Uart.c"
 145  0052  0FE5        	mov a,229
 145  0053  00C6        	mov [70],a
 148  0054              #line 148 "C:\ChipsGarden\醇法\MK8000\MK8000-Power PCB\UARTwith8bitsMCU\UARTwith8bitsMCU\Uart.c"
 148  0054  1F00     R  	clr _rx_guide[0]
 149  0055              #line 149 "C:\ChipsGarden\醇法\MK8000\MK8000-Power PCB\UARTwith8bitsMCU\UARTwith8bitsMCU\Uart.c"
 149  0055  3540        	clr [64].2
 149  0056              _L3:
 149  0056  0700     E  	mov a,r2
 149  0057  008A        	mov status,a
 149  0058  0700     E  	mov a,r3
 149  0059  0084        	mov bp,a
 149  005A  0700     E  	mov a,r4
 149  005B  0083        	mov mp,a
 149  005C  0700     E  	mov a,r5
 149  005D  0081        	mov sbp,a
 149  005E  0700     E  	mov a,r6
 149  005F  0087        	mov tblp,a
 149  0060  0700     E  	mov a,r7
 149  0061  0089        	mov tbhp,a
 149  0062  1D05        	tabrdc acc
 149  0063  0700     E  	mov a,r1
 149  0064  0004        	reti
 149  0065              _UART_ISR endp
 149  0065              
 149  0065              #line 149 "C:\ChipsGarden\醇法\MK8000\MK8000-Power PCB\UARTwith8bitsMCU\UARTwith8bitsMCU\Uart.c"
 149  0065              #pragma debug scope 1 1
 149  0065              public _calc_crc
 149  0065              #pragma debug scope 6 1
 240  0065              #line 240 "C:\ChipsGarden\醇法\MK8000\MK8000-Power PCB\UARTwith8bitsMCU\UARTwith8bitsMCU\Uart.c"
 240  0000              _calc_crc .section 'code'
 240  0000              _calc_crc proc
 240  0000              public _calc_crc_2
 240  0000  0003[           local _calc_crc_2 db 3 dup(?)	; 3,0
            00
            ]
 240  0003              #pragma debug pointer 42 8 6
 240  0003              #pragma debug pointer 42 8 6
 240  0003              #pragma debug variable 42 6 _calc_crc_2+0 "pointer"
 240  0003              #pragma debug variable 8 6 _calc_crc_2+2 "length"
 242  0003              #line 242 "C:\ChipsGarden\醇法\MK8000\MK8000-Power PCB\UARTwith8bitsMCU\UARTwith8bitsMCU\Uart.c"
 242  0000  1F80     R  	set _reg_crc[0]
 242  0001  1F80     R  	set _reg_crc[1]
 243  0002              #line 243 "C:\ChipsGarden\醇法\MK8000\MK8000-Power PCB\UARTwith8bitsMCU\UARTwith8bitsMCU\Uart.c"
 243  0002  1F00     E  	clr ra
 243  0003              _L16:
 243  0003              #line 243 "C:\ChipsGarden\醇法\MK8000\MK8000-Power PCB\UARTwith8bitsMCU\UARTwith8bitsMCU\Uart.c"
 243  0003  0700     E  	mov a,ra
 243  0004  0200     R  	sub a,_calc_crc_2[2]
 243  0005  3D0A        	sz z
 243  0006  2800     R  	jmp _L22
 247  0007              #line 247 "C:\ChipsGarden\醇法\MK8000\MK8000-Power PCB\UARTwith8bitsMCU\UARTwith8bitsMCU\Uart.c"
 247  0007  0F01        	mov a,1
"File: Uart.c        Assembler  Version HGASM0202      Page 6

 247  0008  0300     R  	add a,_calc_crc_2[0]
 247  0009  0080     E  	mov rd,a
 247  000A  0F00        	mov a,0
 247  000B  1300     R  	adc a,_calc_crc_2[1]
 247  000C  0080     E  	mov re,a
 247  000D  0700     R  	mov a,_calc_crc_2[0]
 247  000E  0083        	mov mp,a
 247  000F  0700     R  	mov a,_calc_crc_2[1]
 247  0010  0081        	mov sbp,a
 247  0011  2000     E  	call _Crom2Prom
 247  0012  0080     E  	mov rb,a
 247  0013  1F00     E  	clr rc
 247  0014  0700     R  	mov a,_reg_crc[1]
 247  0015  0480     E  	xorm a,rc
 247  0016  0700     R  	mov a,_reg_crc[0]
 247  0017  0480     E  	xorm a,rb
 247  0018  0F08        	mov a,8
 247  0019  0080     E  	mov rf,a
 247  001A              _L20:
 250  001A              #line 250 "C:\ChipsGarden\醇法\MK8000\MK8000-Power PCB\UARTwith8bitsMCU\UARTwith8bitsMCU\Uart.c"
 250  001A  3800     E  	snz rb.0
 250  001B  2800     R  	jmp _L17
 252  001C              #line 252 "C:\ChipsGarden\醇法\MK8000\MK8000-Power PCB\UARTwith8bitsMCU\UARTwith8bitsMCU\Uart.c"
 252  001C  340A        	clr c
 252  001D  1B80     E  	rrc rc
 252  001E  1B80     E  	rrc rb
 253  001F              #line 253 "C:\ChipsGarden\醇法\MK8000\MK8000-Power PCB\UARTwith8bitsMCU\UARTwith8bitsMCU\Uart.c"
 253  001F  0FA0        	mov a,160
 253  0020  0480     E  	xorm a,rc
 253  0021  0F01        	mov a,1
 253  0022  0480     E  	xorm a,rb
 253  0023  2800     R  	jmp _L18
 253  0024              _L17:
 257  0024              #line 257 "C:\ChipsGarden\醇法\MK8000\MK8000-Power PCB\UARTwith8bitsMCU\UARTwith8bitsMCU\Uart.c"
 257  0024  340A        	clr c
 257  0025  1B80     E  	rrc rc
 257  0026  1B80     E  	rrc rb
 257  0027              _L18:
 257  0027  1780     E  	sdz rf
 257  0028  2800     R  	jmp _L20
 257  0029  0700     E  	mov a,rb
 257  002A  0080     R  	mov _reg_crc[0],a
 257  002B  0700     E  	mov a,rc
 257  002C  0080     R  	mov _reg_crc[1],a
 243  002D              #line 243 "C:\ChipsGarden\醇法\MK8000\MK8000-Power PCB\UARTwith8bitsMCU\UARTwith8bitsMCU\Uart.c"
 243  002D  1480     E  	inc ra
 247  002E              #line 247 "C:\ChipsGarden\醇法\MK8000\MK8000-Power PCB\UARTwith8bitsMCU\UARTwith8bitsMCU\Uart.c"
 247  002E  0700     E  	mov a,rd
 247  002F  0080     R  	mov _calc_crc_2[0],a
 247  0030  0700     E  	mov a,re
 247  0031  0080     R  	mov _calc_crc_2[1],a
 247  0032  2800     R  	jmp _L16
 247  0033              _L22:
 263  0033              #line 263 "C:\ChipsGarden\醇法\MK8000\MK8000-Power PCB\UARTwith8bitsMCU\UARTwith8bitsMCU\Uart.c"
 263  0033  0700     R  	mov a,_reg_crc[0]
 263  0034  0080     E  	mov ra,a
 263  0035  0700     R  	mov a,_reg_crc[1]
 263  0036  0080     E  	mov rb,a
 263  0037  0003        	ret
 263  0038              _calc_crc endp
"File: Uart.c        Assembler  Version HGASM0202      Page 7

 263  0038              #line 263 "C:\ChipsGarden\醇法\MK8000\MK8000-Power PCB\UARTwith8bitsMCU\UARTwith8bitsMCU\Uart.c"
 263  0038              #pragma debug scope 1 1
 263  0038              public _Uart_TXD_Send
 263  0038              #pragma debug scope 7 1
 210  0038              #line 210 "C:\ChipsGarden\醇法\MK8000\MK8000-Power PCB\UARTwith8bitsMCU\UARTwith8bitsMCU\Uart.c"
 210  0000              _Uart_TXD_Send .section 'code'
 210  0000              _Uart_TXD_Send proc
 210  0000              public _Uart_TXD_Send_2
 210  0000  0002[           local _Uart_TXD_Send_2 db 2 dup(?)	; 2,0
            00
            ]
 210  0002              #pragma debug variable 12 7 _Uart_TXD_Send_2+0 "tx_data"
 211  0002              #line 211 "C:\ChipsGarden\醇法\MK8000\MK8000-Power PCB\UARTwith8bitsMCU\UARTwith8bitsMCU\Uart.c"
 211  0000  0F09        	mov a,9
 211  0001  0080     R  	mov _tx_guide[0],a
 212  0002              #line 212 "C:\ChipsGarden\醇法\MK8000\MK8000-Power PCB\UARTwith8bitsMCU\UARTwith8bitsMCU\Uart.c"
 212  0002  1F00     R  	clr _tx_index[0]
 213  0003              #line 213 "C:\ChipsGarden\醇法\MK8000\MK8000-Power PCB\UARTwith8bitsMCU\UARTwith8bitsMCU\Uart.c"
 213  0003  3140        	set [64].2
 217  0004              #line 217 "C:\ChipsGarden\醇法\MK8000\MK8000-Power PCB\UARTwith8bitsMCU\UARTwith8bitsMCU\Uart.c"
 217  0004  0F44        	mov a,68
 217  0005  0080     R  	mov _array_uart_txbuff[0],a
 218  0006              #line 218 "C:\ChipsGarden\醇法\MK8000\MK8000-Power PCB\UARTwith8bitsMCU\UARTwith8bitsMCU\Uart.c"
 218  0006  0F02        	mov a,2
 218  0007  0080     R  	mov _array_uart_txbuff[1],a
 219  0008              #line 219 "C:\ChipsGarden\醇法\MK8000\MK8000-Power PCB\UARTwith8bitsMCU\UARTwith8bitsMCU\Uart.c"
 219  0008  0F04        	mov a,4
 219  0009  0080     R  	mov _array_uart_txbuff[2],a
 220  000A              #line 220 "C:\ChipsGarden\醇法\MK8000\MK8000-Power PCB\UARTwith8bitsMCU\UARTwith8bitsMCU\Uart.c"
 220  000A  0700     R  	mov a,_Uart_TXD_Send_2[0]
 220  000B  0080     E  	mov rb,a
 220  000C  0700     R  	mov a,_Uart_TXD_Send_2[1]
 220  000D  0080     E  	mov rc,a
 220  000E  0700     E  	mov a,rc
 220  000F  0080     E  	mov rb,a
 220  0010  1F00     E  	clr rc
 220  0011  0700     E  	mov a,rb
 220  0012  0080     R  	mov _array_uart_txbuff[3],a
 221  0013              #line 221 "C:\ChipsGarden\醇法\MK8000\MK8000-Power PCB\UARTwith8bitsMCU\UARTwith8bitsMCU\Uart.c"
 221  0013  0700     R  	mov a,_Uart_TXD_Send_2[0]
 221  0014  0080     E  	mov ra,a
 221  0015  0700     E  	mov a,ra
 221  0016  0080     R  	mov _array_uart_txbuff[4],a
 222  0017              #line 222 "C:\ChipsGarden\醇法\MK8000\MK8000-Power PCB\UARTwith8bitsMCU\UARTwith8bitsMCU\Uart.c"
 222  0017  0700     E  	mov a,rb
 222  0018  0080     R  	mov _array_uart_txbuff[5],a
 223  0019              #line 223 "C:\ChipsGarden\醇法\MK8000\MK8000-Power PCB\UARTwith8bitsMCU\UARTwith8bitsMCU\Uart.c"
 223  0019  0700     E  	mov a,ra
 223  001A  0080     R  	mov _array_uart_txbuff[6],a
 225  001B              #line 225 "C:\ChipsGarden\醇法\MK8000\MK8000-Power PCB\UARTwith8bitsMCU\UARTwith8bitsMCU\Uart.c"
 225  001B  0F07        	mov a,7
 225  001C  0080     R  	mov _calc_crc_2[2],a
 225  001D  0F00     R  	mov a,low offset _array_uart_txbuff
 225  001E  0080     R  	mov _calc_crc_2[0],a
 225  001F  0F00     R  	mov a,high offset _array_uart_txbuff
 225  0020  0080     R  	mov _calc_crc_2[1],a
 225  0021  2000     R  	call _calc_crc
 227  0022              #line 227 "C:\ChipsGarden\醇法\MK8000\MK8000-Power PCB\UARTwith8bitsMCU\UARTwith8bitsMCU\Uart.c"
 227  0022  0700     R  	mov a,_reg_crc[0]
 227  0023  0080     R  	mov _array_uart_txbuff[7],a
"File: Uart.c        Assembler  Version HGASM0202      Page 8

 228  0024              #line 228 "C:\ChipsGarden\醇法\MK8000\MK8000-Power PCB\UARTwith8bitsMCU\UARTwith8bitsMCU\Uart.c"
 228  0024  0700     R  	mov a,_reg_crc[1]
 228  0025  0080     R  	mov _array_uart_txbuff[8],a
 230  0026              #line 230 "C:\ChipsGarden\醇法\MK8000\MK8000-Power PCB\UARTwith8bitsMCU\UARTwith8bitsMCU\Uart.c"
 230  0026  0700     R  	mov a,_array_uart_txbuff[0]
 230  0027  00C8        	mov [72],a
 231  0028              #line 231 "C:\ChipsGarden\醇法\MK8000\MK8000-Power PCB\UARTwith8bitsMCU\UARTwith8bitsMCU\Uart.c"
 231  0028  1580     R  	dec _tx_guide[0]
 231  0029  0003        	ret
 231  002A              _Uart_TXD_Send endp
 231  002A              #line 231 "C:\ChipsGarden\醇法\MK8000\MK8000-Power PCB\UARTwith8bitsMCU\UARTwith8bitsMCU\Uart.c"
 231  002A              #pragma debug scope 1 1
 231  002A              public _Uart_RXD_Manage
 231  002A              #pragma debug scope 8 1
 163  002A              #line 163 "C:\ChipsGarden\醇法\MK8000\MK8000-Power PCB\UARTwith8bitsMCU\UARTwith8bitsMCU\Uart.c"
 163  0000              _Uart_RXD_Manage .section 'code'
 163  0000              _Uart_RXD_Manage proc
 164  0000              #line 164 "C:\ChipsGarden\醇法\MK8000\MK8000-Power PCB\UARTwith8bitsMCU\UARTwith8bitsMCU\Uart.c"
 164  0000  3800     R  	snz _uart_flag[0].0
 164  0001  2800     R  	jmp _L25
 166  0002              #line 166 "C:\ChipsGarden\醇法\MK8000\MK8000-Power PCB\UARTwith8bitsMCU\UARTwith8bitsMCU\Uart.c"
 166  0002  3400     R  	clr _uart_flag[0].0
 167  0003              #line 167 "C:\ChipsGarden\醇法\MK8000\MK8000-Power PCB\UARTwith8bitsMCU\UARTwith8bitsMCU\Uart.c"
 167  0003  0700     R  	mov a,_array_uart_rxbuff[0]
 167  0004  0A44        	sub a,68
 167  0005  390A        	snz z
 167  0006  2800     R  	jmp _L29
 167  0007  0700     R  	mov a,_array_uart_rxbuff[7]
 167  0008  0A0A        	sub a,10
 167  0009  390A        	snz z
 167  000A  2800     R  	jmp _L29
 169  000B              #line 169 "C:\ChipsGarden\醇法\MK8000\MK8000-Power PCB\UARTwith8bitsMCU\UARTwith8bitsMCU\Uart.c"
 169  000B  0700     R  	mov a,_array_uart_rxbuff[1]
 169  000C  0A02        	sub a,2
 169  000D  390A        	snz z
 169  000E  2800     R  	jmp _L29
 176  000F              #line 176 "C:\ChipsGarden\醇法\MK8000\MK8000-Power PCB\UARTwith8bitsMCU\UARTwith8bitsMCU\Uart.c"
 176  000F  0FAA        	mov a,-86
 176  0010  0080     R  	mov _Uart_TXD_Send_2[0],a
 176  0011  0F55        	mov a,85
 176  0012  0080     R  	mov _Uart_TXD_Send_2[1],a
 176  0013  2000     R  	call _Uart_TXD_Send
 178  0014              #line 178 "C:\ChipsGarden\醇法\MK8000\MK8000-Power PCB\UARTwith8bitsMCU\UARTwith8bitsMCU\Uart.c"
 178  0014  2800     R  	jmp _L29
 178  0015              _L25:
 196  0015              #line 196 "C:\ChipsGarden\醇法\MK8000\MK8000-Power PCB\UARTwith8bitsMCU\UARTwith8bitsMCU\Uart.c"
 196  0015  0F96        	mov a,150
 196  0016  0200     R  	sub a,_rx_watchdog[0]
 196  0017  3C0A        	sz c
 196  0018  2800     R  	jmp _L24
 198  0019              #line 198 "C:\ChipsGarden\醇法\MK8000\MK8000-Power PCB\UARTwith8bitsMCU\UARTwith8bitsMCU\Uart.c"
 198  0019  1F00     R  	clr _rx_watchdog[0]
 198  001A              _L29:
 199  001A              #line 199 "C:\ChipsGarden\醇法\MK8000\MK8000-Power PCB\UARTwith8bitsMCU\UARTwith8bitsMCU\Uart.c"
 199  001A  1F00     R  	clr _rx_guide[0]
 199  001B              _L24:
 199  001B  0003        	ret
 199  001C              _Uart_RXD_Manage endp
 199  001C              #line 199 "C:\ChipsGarden\醇法\MK8000\MK8000-Power PCB\UARTwith8bitsMCU\UARTwith8bitsMCU\Uart.c"
 199  001C              #pragma debug scope 1 1
"File: Uart.c        Assembler  Version HGASM0202      Page 9

  44  001C              #line 44 "C:\ChipsGarden\醇法\MK8000\MK8000-Power PCB\UARTwith8bitsMCU\UARTwith8bitsMCU\Uart.c"
  44  001C              public _reg_crc
  44  0000              @HCCINIT0 .section 'data'
  44  0000  0002[       _reg_crc	db 2 dup(0)
            00
            ]
  44  0002              #pragma debug struct_end
  44  0002              #pragma debug struct_end
  44  0002              #pragma debug struct_end
  44  0002              #pragma debug struct_end
  44  0002              #pragma debug union_end
  44  0002              #pragma debug union_end
  44  0002              #pragma debug variable 45 1 _reg_crc "reg_crc"
  44  0002              
  44  0000              @HCCINIT .section 'data'
  42  0000              #line 42 "C:\ChipsGarden\醇法\MK8000\MK8000-Power PCB\UARTwith8bitsMCU\UARTwith8bitsMCU\Uart.c"
  42  0000              public _uart_flag
  42  0002              @HCCINIT0 .section 'data'
  42  0002              _uart_flag	db 0
  42  0003              #pragma debug struct_end
  42  0003              #pragma debug struct_end
  42  0003              #pragma debug union_end
  42  0003              #pragma debug union_end
  42  0003              #pragma debug variable 47 1 _uart_flag "uart_flag"
  42  0003              
  42  0000              @HCCINIT .section 'data'
  41  0000              #line 41 "C:\ChipsGarden\醇法\MK8000\MK8000-Power PCB\UARTwith8bitsMCU\UARTwith8bitsMCU\Uart.c"
  41  0000              public _array_uart_rxbuff
  41  0003              @HCCINIT0 .section 'data'
  41  0003  0008[       _array_uart_rxbuff	db 8 dup(0)
            00
            ]
  41  000B              #pragma debug array 48 8 8 1
  41  000B              #pragma debug array 48 8 8 1
  41  000B              #pragma debug variable 48 1 _array_uart_rxbuff "array_uart_rxbuff"
  41  000B              
  41  0000              @HCCINIT .section 'data'
  40  0000              #line 40 "C:\ChipsGarden\醇法\MK8000\MK8000-Power PCB\UARTwith8bitsMCU\UARTwith8bitsMCU\Uart.c"
  40  0000              public _array_uart_txbuff
  40  000B              @HCCINIT0 .section 'data'
  40  000B  0010[       _array_uart_txbuff	db 16 dup(0)
            00
            ]
  40  001B              #pragma debug array 49 8 16 1
  40  001B              #pragma debug array 49 8 16 1
  40  001B              #pragma debug variable 49 1 _array_uart_txbuff "array_uart_txbuff"
  40  001B              
  40  0000              @HCCINIT .section 'data'
  39  0000              #line 39 "C:\ChipsGarden\醇法\MK8000\MK8000-Power PCB\UARTwith8bitsMCU\UARTwith8bitsMCU\Uart.c"
  39  0000              public _tx_guide
  39  001B              @HCCINIT0 .section 'data'
  39  001B              _tx_guide	db 0
  39  001C              #pragma debug variable 8 1 _tx_guide "tx_guide"
  39  001C              
  39  0000              @HCCINIT .section 'data'
  38  0000              #line 38 "C:\ChipsGarden\醇法\MK8000\MK8000-Power PCB\UARTwith8bitsMCU\UARTwith8bitsMCU\Uart.c"
  38  0000              public _rx_guide
  38  001C              @HCCINIT0 .section 'data'
  38  001C              _rx_guide	db 0
  38  001D              #pragma debug variable 8 1 _rx_guide "rx_guide"
"File: Uart.c        Assembler  Version HGASM0202      Page 10

  38  001D              
  38  0000              @HCCINIT .section 'data'
  37  0000              #line 37 "C:\ChipsGarden\醇法\MK8000\MK8000-Power PCB\UARTwith8bitsMCU\UARTwith8bitsMCU\Uart.c"
  37  0000              public _tx_index
  37  001D              @HCCINIT0 .section 'data'
  37  001D              _tx_index	db 0
  37  001E              #pragma debug variable 8 1 _tx_index "tx_index"
  37  001E              
  37  0000              @HCCINIT .section 'data'
  36  0000              #line 36 "C:\ChipsGarden\醇法\MK8000\MK8000-Power PCB\UARTwith8bitsMCU\UARTwith8bitsMCU\Uart.c"
  36  0000              public _rx_watchdog
  36  001E              @HCCINIT0 .section 'data'
  36  001E              _rx_watchdog	db 0
  36  001F              #pragma debug variable 8 1 _rx_watchdog "rx_watchdog"
  36  001F              
  36  0000              @HCCINIT .section 'data'
  36  0000              #pragma debug struct_end
  36  0000              #pragma debug struct_end
  36  0000              #pragma debug union_end
  36  0000              #pragma debug union_end
  36  0000              #pragma debug variable 51 1 ___intc2 "__intc2" 1
  36  0000              #pragma debug struct_end
  36  0000              #pragma debug struct_end
  36  0000              #pragma debug union_end
  36  0000              #pragma debug union_end
  36  0000              #pragma debug variable 53 1 ___pc "__pc" 1
  36  0000              #pragma debug struct_end
  36  0000              #pragma debug struct_end
  36  0000              #pragma debug union_end
  36  0000              #pragma debug union_end
  36  0000              #pragma debug variable 55 1 ___pcc "__pcc" 1
  36  0000              #pragma debug struct_end
  36  0000              #pragma debug struct_end
  36  0000              #pragma debug union_end
  36  0000              #pragma debug union_end
  36  0000              #pragma debug variable 57 1 ___pcpu "__pcpu" 1
  36  0000              #pragma debug struct_end
  36  0000              #pragma debug struct_end
  36  0000              #pragma debug union_end
  36  0000              #pragma debug union_end
  36  0000              #pragma debug variable 59 1 ___usr "__usr" 1
  36  0000              #pragma debug struct_end
  36  0000              #pragma debug struct_end
  36  0000              #pragma debug union_end
  36  0000              #pragma debug union_end
  36  0000              #pragma debug variable 61 1 ___ucr1 "__ucr1" 1
  36  0000              #pragma debug struct_end
  36  0000              #pragma debug struct_end
  36  0000              #pragma debug union_end
  36  0000              #pragma debug union_end
  36  0000              #pragma debug variable 63 1 ___ucr2 "__ucr2" 1
  36  0000              #pragma debug struct_end
  36  0000              #pragma debug struct_end
  36  0000              #pragma debug union_end
  36  0000              #pragma debug union_end
  36  0000              #pragma debug variable 65 1 ___brg "__brg" 1
  36  0000              #pragma debug struct_end
  36  0000              #pragma debug struct_end
  36  0000              #pragma debug union_end
  36  0000              #pragma debug union_end
"File: Uart.c        Assembler  Version HGASM0202      Page 11

  36  0000              #pragma debug variable 67 1 ___txr_rxr "__txr_rxr" 1
  36  0000              
  36  0000              ; output external variables
  36  0000              extern _isr_temp0:byte
  36  0000              extern r1:byte
  36  0000              extern r2:byte
  36  0000              extern r3:byte
  36  0000              extern r4:byte
  36  0000              extern r5:byte
  36  0000              extern r6:byte
  36  0000              extern r7:byte
  36  0000              
  36  0000              ; 
  36  0000              ; Generated by holtek-gcc v3.19, Fri Jul 31 15:05:28 2020
  36  0000              ; Rebuild 718
  36  0000              ; end of file


        0 Errors, 0